target datalayout = "e-m:e-p270:32:32-p271:32:32-p272:64:64-i64:64-i128:128-f80:128-n8:16:32:64-S128"
target triple = "x86_64-pc-linux-gnu"

%struct._generic_SUNLinearSolver = type { ptr, ptr, ptr }
%struct._SUNLinearSolverContent_SPTFQMR = type { i32, i32, i32, i32, double, i32, ptr, ptr, ptr, ptr, ptr, ptr, ptr, ptr, ptr, ptr, ptr, ptr, ptr, ptr, ptr, ptr, ptr }

; Function Attrs: nounwind uwtable
define i32 @SUNLinSolFree_SPTFQMR(ptr noundef %0) #0 {
  %2 = alloca i32, align 4
  %3 = alloca ptr, align 8
  store ptr %0, ptr %3, align 8, !tbaa !12
  %4 = load ptr, ptr %3, align 8, !tbaa !12
  %5 = icmp eq ptr %4, null
  br i1 %5, label %6, label %7

6:                                                ; preds = %1
  store i32 0, ptr %2, align 4
  br label %201

7:                                                ; preds = %1
  %8 = load ptr, ptr %3, align 8, !tbaa !12
  %9 = getelementptr inbounds nuw %struct._generic_SUNLinearSolver, ptr %8, i32 0, i32 0
  %10 = load ptr, ptr %9, align 8, !tbaa !35
  %11 = icmp ne ptr %10, null
  br i1 %11, label %12, label %188

12:                                               ; preds = %7
  %13 = load ptr, ptr %3, align 8, !tbaa !12
  %14 = getelementptr inbounds nuw %struct._generic_SUNLinearSolver, ptr %13, i32 0, i32 0
  %15 = load ptr, ptr %14, align 8, !tbaa !35
  %16 = getelementptr inbounds nuw %struct._SUNLinearSolverContent_SPTFQMR, ptr %15, i32 0, i32 13
  %17 = load ptr, ptr %16, align 8, !tbaa !45
  %18 = icmp ne ptr %17, null
  br i1 %18, label %19, label %29

19:                                               ; preds = %12
  %20 = load ptr, ptr %3, align 8, !tbaa !12
  %21 = getelementptr inbounds nuw %struct._generic_SUNLinearSolver, ptr %20, i32 0, i32 0
  %22 = load ptr, ptr %21, align 8, !tbaa !35
  %23 = getelementptr inbounds nuw %struct._SUNLinearSolverContent_SPTFQMR, ptr %22, i32 0, i32 13
  %24 = load ptr, ptr %23, align 8, !tbaa !45
  call void @N_VDestroy(ptr noundef %24)
  %25 = load ptr, ptr %3, align 8, !tbaa !12
  %26 = getelementptr inbounds nuw %struct._generic_SUNLinearSolver, ptr %25, i32 0, i32 0
  %27 = load ptr, ptr %26, align 8, !tbaa !35
  %28 = getelementptr inbounds nuw %struct._SUNLinearSolverContent_SPTFQMR, ptr %27, i32 0, i32 13
  store ptr null, ptr %28, align 8, !tbaa !45
  br label %29

29:                                               ; preds = %19, %12
  %30 = load ptr, ptr %3, align 8, !tbaa !12
  %31 = getelementptr inbounds nuw %struct._generic_SUNLinearSolver, ptr %30, i32 0, i32 0
  %32 = load ptr, ptr %31, align 8, !tbaa !35
  %33 = getelementptr inbounds nuw %struct._SUNLinearSolverContent_SPTFQMR, ptr %32, i32 0, i32 14
  %34 = load ptr, ptr %33, align 8, !tbaa !46
  %35 = icmp ne ptr %34, null
  br i1 %35, label %36, label %46

36:                                               ; preds = %29
  %37 = load ptr, ptr %3, align 8, !tbaa !12
  %38 = getelementptr inbounds nuw %struct._generic_SUNLinearSolver, ptr %37, i32 0, i32 0
  %39 = load ptr, ptr %38, align 8, !tbaa !35
  %40 = getelementptr inbounds nuw %struct._SUNLinearSolverContent_SPTFQMR, ptr %39, i32 0, i32 14
  %41 = load ptr, ptr %40, align 8, !tbaa !46
  call void @N_VDestroy(ptr noundef %41)
  %42 = load ptr, ptr %3, align 8, !tbaa !12
  %43 = getelementptr inbounds nuw %struct._generic_SUNLinearSolver, ptr %42, i32 0, i32 0
  %44 = load ptr, ptr %43, align 8, !tbaa !35
  %45 = getelementptr inbounds nuw %struct._SUNLinearSolverContent_SPTFQMR, ptr %44, i32 0, i32 14
  store ptr null, ptr %45, align 8, !tbaa !46
  br label %46

46:                                               ; preds = %36, %29
  %47 = load ptr, ptr %3, align 8, !tbaa !12
  %48 = getelementptr inbounds nuw %struct._generic_SUNLinearSolver, ptr %47, i32 0, i32 0
  %49 = load ptr, ptr %48, align 8, !tbaa !35
  %50 = getelementptr inbounds nuw %struct._SUNLinearSolverContent_SPTFQMR, ptr %49, i32 0, i32 15
  %51 = load ptr, ptr %50, align 8, !tbaa !47
  %52 = icmp ne ptr %51, null
  br i1 %52, label %53, label %63

53:                                               ; preds = %46
  %54 = load ptr, ptr %3, align 8, !tbaa !12
  %55 = getelementptr inbounds nuw %struct._generic_SUNLinearSolver, ptr %54, i32 0, i32 0
  %56 = load ptr, ptr %55, align 8, !tbaa !35
  %57 = getelementptr inbounds nuw %struct._SUNLinearSolverContent_SPTFQMR, ptr %56, i32 0, i32 15
  %58 = load ptr, ptr %57, align 8, !tbaa !47
  call void @N_VDestroy(ptr noundef %58)
  %59 = load ptr, ptr %3, align 8, !tbaa !12
  %60 = getelementptr inbounds nuw %struct._generic_SUNLinearSolver, ptr %59, i32 0, i32 0
  %61 = load ptr, ptr %60, align 8, !tbaa !35
  %62 = getelementptr inbounds nuw %struct._SUNLinearSolverContent_SPTFQMR, ptr %61, i32 0, i32 15
  store ptr null, ptr %62, align 8, !tbaa !47
  br label %63

63:                                               ; preds = %53, %46
  %64 = load ptr, ptr %3, align 8, !tbaa !12
  %65 = getelementptr inbounds nuw %struct._generic_SUNLinearSolver, ptr %64, i32 0, i32 0
  %66 = load ptr, ptr %65, align 8, !tbaa !35
  %67 = getelementptr inbounds nuw %struct._SUNLinearSolverContent_SPTFQMR, ptr %66, i32 0, i32 16
  %68 = load ptr, ptr %67, align 8, !tbaa !48
  %69 = icmp ne ptr %68, null
  br i1 %69, label %70, label %80

70:                                               ; preds = %63
  %71 = load ptr, ptr %3, align 8, !tbaa !12
  %72 = getelementptr inbounds nuw %struct._generic_SUNLinearSolver, ptr %71, i32 0, i32 0
  %73 = load ptr, ptr %72, align 8, !tbaa !35
  %74 = getelementptr inbounds nuw %struct._SUNLinearSolverContent_SPTFQMR, ptr %73, i32 0, i32 16
  %75 = load ptr, ptr %74, align 8, !tbaa !48
  call void @N_VDestroy(ptr noundef %75)
  %76 = load ptr, ptr %3, align 8, !tbaa !12
  %77 = getelementptr inbounds nuw %struct._generic_SUNLinearSolver, ptr %76, i32 0, i32 0
  %78 = load ptr, ptr %77, align 8, !tbaa !35
  %79 = getelementptr inbounds nuw %struct._SUNLinearSolverContent_SPTFQMR, ptr %78, i32 0, i32 16
  store ptr null, ptr %79, align 8, !tbaa !48
  br label %80

80:                                               ; preds = %70, %63
  %81 = load ptr, ptr %3, align 8, !tbaa !12
  %82 = getelementptr inbounds nuw %struct._generic_SUNLinearSolver, ptr %81, i32 0, i32 0
  %83 = load ptr, ptr %82, align 8, !tbaa !35
  %84 = getelementptr inbounds nuw %struct._SUNLinearSolverContent_SPTFQMR, ptr %83, i32 0, i32 17
  %85 = load ptr, ptr %84, align 8, !tbaa !49
  %86 = icmp ne ptr %85, null
  br i1 %86, label %87, label %97

87:                                               ; preds = %80
  %88 = load ptr, ptr %3, align 8, !tbaa !12
  %89 = getelementptr inbounds nuw %struct._generic_SUNLinearSolver, ptr %88, i32 0, i32 0
  %90 = load ptr, ptr %89, align 8, !tbaa !35
  %91 = getelementptr inbounds nuw %struct._SUNLinearSolverContent_SPTFQMR, ptr %90, i32 0, i32 17
  %92 = load ptr, ptr %91, align 8, !tbaa !49
  call void @N_VDestroy(ptr noundef %92)
  %93 = load ptr, ptr %3, align 8, !tbaa !12
  %94 = getelementptr inbounds nuw %struct._generic_SUNLinearSolver, ptr %93, i32 0, i32 0
  %95 = load ptr, ptr %94, align 8, !tbaa !35
  %96 = getelementptr inbounds nuw %struct._SUNLinearSolverContent_SPTFQMR, ptr %95, i32 0, i32 17
  store ptr null, ptr %96, align 8, !tbaa !49
  br label %97

97:                                               ; preds = %87, %80
  %98 = load ptr, ptr %3, align 8, !tbaa !12
  %99 = getelementptr inbounds nuw %struct._generic_SUNLinearSolver, ptr %98, i32 0, i32 0
  %100 = load ptr, ptr %99, align 8, !tbaa !35
  %101 = getelementptr inbounds nuw %struct._SUNLinearSolverContent_SPTFQMR, ptr %100, i32 0, i32 18
  %102 = load ptr, ptr %101, align 8, !tbaa !50
  %103 = icmp ne ptr %102, null
  br i1 %103, label %104, label %114

104:                                              ; preds = %97
  %105 = load ptr, ptr %3, align 8, !tbaa !12
  %106 = getelementptr inbounds nuw %struct._generic_SUNLinearSolver, ptr %105, i32 0, i32 0
  %107 = load ptr, ptr %106, align 8, !tbaa !35
  %108 = getelementptr inbounds nuw %struct._SUNLinearSolverContent_SPTFQMR, ptr %107, i32 0, i32 18
  %109 = load ptr, ptr %108, align 8, !tbaa !50
  call void @N_VDestroyVectorArray(ptr noundef %109, i32 noundef 2)
  %110 = load ptr, ptr %3, align 8, !tbaa !12
  %111 = getelementptr inbounds nuw %struct._generic_SUNLinearSolver, ptr %110, i32 0, i32 0
  %112 = load ptr, ptr %111, align 8, !tbaa !35
  %113 = getelementptr inbounds nuw %struct._SUNLinearSolverContent_SPTFQMR, ptr %112, i32 0, i32 18
  store ptr null, ptr %113, align 8, !tbaa !50
  br label %114

114:                                              ; preds = %104, %97
  %115 = load ptr, ptr %3, align 8, !tbaa !12
  %116 = getelementptr inbounds nuw %struct._generic_SUNLinearSolver, ptr %115, i32 0, i32 0
  %117 = load ptr, ptr %116, align 8, !tbaa !35
  %118 = getelementptr inbounds nuw %struct._SUNLinearSolverContent_SPTFQMR, ptr %117, i32 0, i32 19
  %119 = load ptr, ptr %118, align 8, !tbaa !51
  %120 = icmp ne ptr %119, null
  br i1 %120, label %121, label %131

121:                                              ; preds = %114
  %122 = load ptr, ptr %3, align 8, !tbaa !12
  %123 = getelementptr inbounds nuw %struct._generic_SUNLinearSolver, ptr %122, i32 0, i32 0
  %124 = load ptr, ptr %123, align 8, !tbaa !35
  %125 = getelementptr inbounds nuw %struct._SUNLinearSolverContent_SPTFQMR, ptr %124, i32 0, i32 19
  %126 = load ptr, ptr %125, align 8, !tbaa !51
  call void @N_VDestroy(ptr noundef %126)
  %127 = load ptr, ptr %3, align 8, !tbaa !12
  %128 = getelementptr inbounds nuw %struct._generic_SUNLinearSolver, ptr %127, i32 0, i32 0
  %129 = load ptr, ptr %128, align 8, !tbaa !35
  %130 = getelementptr inbounds nuw %struct._SUNLinearSolverContent_SPTFQMR, ptr %129, i32 0, i32 19
  store ptr null, ptr %130, align 8, !tbaa !51
  br label %131

131:                                              ; preds = %121, %114
  %132 = load ptr, ptr %3, align 8, !tbaa !12
  %133 = getelementptr inbounds nuw %struct._generic_SUNLinearSolver, ptr %132, i32 0, i32 0
  %134 = load ptr, ptr %133, align 8, !tbaa !35
  %135 = getelementptr inbounds nuw %struct._SUNLinearSolverContent_SPTFQMR, ptr %134, i32 0, i32 20
  %136 = load ptr, ptr %135, align 8, !tbaa !52
  %137 = icmp ne ptr %136, null
  br i1 %137, label %138, label %148

138:                                              ; preds = %131
  %139 = load ptr, ptr %3, align 8, !tbaa !12
  %140 = getelementptr inbounds nuw %struct._generic_SUNLinearSolver, ptr %139, i32 0, i32 0
  %141 = load ptr, ptr %140, align 8, !tbaa !35
  %142 = getelementptr inbounds nuw %struct._SUNLinearSolverContent_SPTFQMR, ptr %141, i32 0, i32 20
  %143 = load ptr, ptr %142, align 8, !tbaa !52
  call void @N_VDestroy(ptr noundef %143)
  %144 = load ptr, ptr %3, align 8, !tbaa !12
  %145 = getelementptr inbounds nuw %struct._generic_SUNLinearSolver, ptr %144, i32 0, i32 0
  %146 = load ptr, ptr %145, align 8, !tbaa !35
  %147 = getelementptr inbounds nuw %struct._SUNLinearSolverContent_SPTFQMR, ptr %146, i32 0, i32 20
  store ptr null, ptr %147, align 8, !tbaa !52
  br label %148

148:                                              ; preds = %138, %131
  %149 = load ptr, ptr %3, align 8, !tbaa !12
  %150 = getelementptr inbounds nuw %struct._generic_SUNLinearSolver, ptr %149, i32 0, i32 0
  %151 = load ptr, ptr %150, align 8, !tbaa !35
  %152 = getelementptr inbounds nuw %struct._SUNLinearSolverContent_SPTFQMR, ptr %151, i32 0, i32 21
  %153 = load ptr, ptr %152, align 8, !tbaa !53
  %154 = icmp ne ptr %153, null
  br i1 %154, label %155, label %165

155:                                              ; preds = %148
  %156 = load ptr, ptr %3, align 8, !tbaa !12
  %157 = getelementptr inbounds nuw %struct._generic_SUNLinearSolver, ptr %156, i32 0, i32 0
  %158 = load ptr, ptr %157, align 8, !tbaa !35
  %159 = getelementptr inbounds nuw %struct._SUNLinearSolverContent_SPTFQMR, ptr %158, i32 0, i32 21
  %160 = load ptr, ptr %159, align 8, !tbaa !53
  call void @N_VDestroy(ptr noundef %160)
  %161 = load ptr, ptr %3, align 8, !tbaa !12
  %162 = getelementptr inbounds nuw %struct._generic_SUNLinearSolver, ptr %161, i32 0, i32 0
  %163 = load ptr, ptr %162, align 8, !tbaa !35
  %164 = getelementptr inbounds nuw %struct._SUNLinearSolverContent_SPTFQMR, ptr %163, i32 0, i32 21
  store ptr null, ptr %164, align 8, !tbaa !53
  br label %165

165:                                              ; preds = %155, %148
  %166 = load ptr, ptr %3, align 8, !tbaa !12
  %167 = getelementptr inbounds nuw %struct._generic_SUNLinearSolver, ptr %166, i32 0, i32 0
  %168 = load ptr, ptr %167, align 8, !tbaa !35
  %169 = getelementptr inbounds nuw %struct._SUNLinearSolverContent_SPTFQMR, ptr %168, i32 0, i32 22
  %170 = load ptr, ptr %169, align 8, !tbaa !54
  %171 = icmp ne ptr %170, null
  br i1 %171, label %172, label %182

172:                                              ; preds = %165
  %173 = load ptr, ptr %3, align 8, !tbaa !12
  %174 = getelementptr inbounds nuw %struct._generic_SUNLinearSolver, ptr %173, i32 0, i32 0
  %175 = load ptr, ptr %174, align 8, !tbaa !35
  %176 = getelementptr inbounds nuw %struct._SUNLinearSolverContent_SPTFQMR, ptr %175, i32 0, i32 22
  %177 = load ptr, ptr %176, align 8, !tbaa !54
  call void @N_VDestroy(ptr noundef %177)
  %178 = load ptr, ptr %3, align 8, !tbaa !12
  %179 = getelementptr inbounds nuw %struct._generic_SUNLinearSolver, ptr %178, i32 0, i32 0
  %180 = load ptr, ptr %179, align 8, !tbaa !35
  %181 = getelementptr inbounds nuw %struct._SUNLinearSolverContent_SPTFQMR, ptr %180, i32 0, i32 22
  store ptr null, ptr %181, align 8, !tbaa !54
  br label %182

182:                                              ; preds = %172, %165
  %183 = load ptr, ptr %3, align 8, !tbaa !12
  %184 = getelementptr inbounds nuw %struct._generic_SUNLinearSolver, ptr %183, i32 0, i32 0
  %185 = load ptr, ptr %184, align 8, !tbaa !35
  call void @free(ptr noundef %185) #6
  %186 = load ptr, ptr %3, align 8, !tbaa !12
  %187 = getelementptr inbounds nuw %struct._generic_SUNLinearSolver, ptr %186, i32 0, i32 0
  store ptr null, ptr %187, align 8, !tbaa !35
  br label %188

188:                                              ; preds = %182, %7
  %189 = load ptr, ptr %3, align 8, !tbaa !12
  %190 = getelementptr inbounds nuw %struct._generic_SUNLinearSolver, ptr %189, i32 0, i32 1
  %191 = load ptr, ptr %190, align 8, !tbaa !14
  %192 = icmp ne ptr %191, null
  br i1 %192, label %193, label %199

193:                                              ; preds = %188
  %194 = load ptr, ptr %3, align 8, !tbaa !12
  %195 = getelementptr inbounds nuw %struct._generic_SUNLinearSolver, ptr %194, i32 0, i32 1
  %196 = load ptr, ptr %195, align 8, !tbaa !14
  call void @free(ptr noundef %196) #6
  %197 = load ptr, ptr %3, align 8, !tbaa !12
  %198 = getelementptr inbounds nuw %struct._generic_SUNLinearSolver, ptr %197, i32 0, i32 1
  store ptr null, ptr %198, align 8, !tbaa !14
  br label %199

199:                                              ; preds = %193, %188
  %200 = load ptr, ptr %3, align 8, !tbaa !12
  call void @free(ptr noundef %200) #6
  store ptr null, ptr %3, align 8, !tbaa !12
  store i32 0, ptr %2, align 4
  br label %201

201:                                              ; preds = %199, %6
  %202 = load i32, ptr %2, align 4
  ret i32 %202
}