; Function Attrs: nounwind uwtable
define noundef i32 @SUNLinSolFree_SPTFQMR(ptr noundef captures(address_is_null) %0) #0 {
  %2 = icmp eq ptr %0, null
  br i1 %2, label %81, label %3

3:                                                ; preds = %1
  %4 = load ptr, ptr %0, align 8, !tbaa !26
  %.not = icmp eq ptr %4, null
  br i1 %.not, label %76, label %5

5:                                                ; preds = %3
  %6 = getelementptr inbounds nuw i8, ptr %4, i64 88
  %7 = load ptr, ptr %6, align 8, !tbaa !35
  %.not50 = icmp eq ptr %7, null
  br i1 %.not50, label %11, label %8

8:                                                ; preds = %5
  tail call void @N_VDestroy(ptr noundef nonnull %7) #13
  %9 = load ptr, ptr %0, align 8, !tbaa !26
  %10 = getelementptr inbounds nuw i8, ptr %9, i64 88
  store ptr null, ptr %10, align 8, !tbaa !35
  br label %11

11:                                               ; preds = %8, %5
  %12 = phi ptr [ %9, %8 ], [ %4, %5 ]
  %13 = getelementptr inbounds nuw i8, ptr %12, i64 96
  %14 = load ptr, ptr %13, align 8, !tbaa !36
  %.not51 = icmp eq ptr %14, null
  br i1 %.not51, label %18, label %15

15:                                               ; preds = %11
  tail call void @N_VDestroy(ptr noundef nonnull %14) #13
  %16 = load ptr, ptr %0, align 8, !tbaa !26
  %17 = getelementptr inbounds nuw i8, ptr %16, i64 96
  store ptr null, ptr %17, align 8, !tbaa !36
  br label %18

18:                                               ; preds = %15, %11
  %19 = phi ptr [ %16, %15 ], [ %12, %11 ]
  %20 = getelementptr inbounds nuw i8, ptr %19, i64 104
  %21 = load ptr, ptr %20, align 8, !tbaa !37
  %.not52 = icmp eq ptr %21, null
  br i1 %.not52, label %25, label %22

22:                                               ; preds = %18
  tail call void @N_VDestroy(ptr noundef nonnull %21) #13
  %23 = load ptr, ptr %0, align 8, !tbaa !26
  %24 = getelementptr inbounds nuw i8, ptr %23, i64 104
  store ptr null, ptr %24, align 8, !tbaa !37
  br label %25

25:                                               ; preds = %22, %18
  %26 = phi ptr [ %23, %22 ], [ %19, %18 ]
  %27 = getelementptr inbounds nuw i8, ptr %26, i64 112
  %28 = load ptr, ptr %27, align 8, !tbaa !38
  %.not53 = icmp eq ptr %28, null
  br i1 %.not53, label %32, label %29

29:                                               ; preds = %25
  tail call void @N_VDestroy(ptr noundef nonnull %28) #13
  %30 = load ptr, ptr %0, align 8, !tbaa !26
  %31 = getelementptr inbounds nuw i8, ptr %30, i64 112
  store ptr null, ptr %31, align 8, !tbaa !38
  br label %32

32:                                               ; preds = %29, %25
  %33 = phi ptr [ %30, %29 ], [ %26, %25 ]
  %34 = getelementptr inbounds nuw i8, ptr %33, i64 120
  %35 = load ptr, ptr %34, align 8, !tbaa !39
  %.not54 = icmp eq ptr %35, null
  br i1 %.not54, label %39, label %36

36:                                               ; preds = %32
  tail call void @N_VDestroy(ptr noundef nonnull %35) #13
  %37 = load ptr, ptr %0, align 8, !tbaa !26
  %38 = getelementptr inbounds nuw i8, ptr %37, i64 120
  store ptr null, ptr %38, align 8, !tbaa !39
  br label %39

39:                                               ; preds = %36, %32
  %40 = phi ptr [ %37, %36 ], [ %33, %32 ]
  %41 = getelementptr inbounds nuw i8, ptr %40, i64 128
  %42 = load ptr, ptr %41, align 8, !tbaa !40
  %.not55 = icmp eq ptr %42, null
  br i1 %.not55, label %46, label %43

43:                                               ; preds = %39
  tail call void @N_VDestroyVectorArray(ptr noundef nonnull %42, i32 noundef 2) #13
  %44 = load ptr, ptr %0, align 8, !tbaa !26
  %45 = getelementptr inbounds nuw i8, ptr %44, i64 128
  store ptr null, ptr %45, align 8, !tbaa !40
  br label %46

46:                                               ; preds = %43, %39
  %47 = phi ptr [ %44, %43 ], [ %40, %39 ]
  %48 = getelementptr inbounds nuw i8, ptr %47, i64 136
  %49 = load ptr, ptr %48, align 8, !tbaa !41
  %.not56 = icmp eq ptr %49, null
  br i1 %.not56, label %53, label %50

50:                                               ; preds = %46
  tail call void @N_VDestroy(ptr noundef nonnull %49) #13
  %51 = load ptr, ptr %0, align 8, !tbaa !26
  %52 = getelementptr inbounds nuw i8, ptr %51, i64 136
  store ptr null, ptr %52, align 8, !tbaa !41
  br label %53

53:                                               ; preds = %50, %46
  %54 = phi ptr [ %51, %50 ], [ %47, %46 ]
  %55 = getelementptr inbounds nuw i8, ptr %54, i64 144
  %56 = load ptr, ptr %55, align 8, !tbaa !42
  %.not57 = icmp eq ptr %56, null
  br i1 %.not57, label %60, label %57

57:                                               ; preds = %53
  tail call void @N_VDestroy(ptr noundef nonnull %56) #13
  %58 = load ptr, ptr %0, align 8, !tbaa !26
  %59 = getelementptr inbounds nuw i8, ptr %58, i64 144
  store ptr null, ptr %59, align 8, !tbaa !42
  br label %60

60:                                               ; preds = %57, %53
  %61 = phi ptr [ %58, %57 ], [ %54, %53 ]
  %62 = getelementptr inbounds nuw i8, ptr %61, i64 152
  %63 = load ptr, ptr %62, align 8, !tbaa !43
  %.not58 = icmp eq ptr %63, null
  br i1 %.not58, label %67, label %64

64:                                               ; preds = %60
  tail call void @N_VDestroy(ptr noundef nonnull %63) #13
  %65 = load ptr, ptr %0, align 8, !tbaa !26
  %66 = getelementptr inbounds nuw i8, ptr %65, i64 152
  store ptr null, ptr %66, align 8, !tbaa !43
  br label %67

67:                                               ; preds = %64, %60
  %68 = phi ptr [ %65, %64 ], [ %61, %60 ]
  %69 = getelementptr inbounds nuw i8, ptr %68, i64 160
  %70 = load ptr, ptr %69, align 8, !tbaa !44
  %.not59 = icmp eq ptr %70, null
  br i1 %.not59, label %74, label %71

71:                                               ; preds = %67
  tail call void @N_VDestroy(ptr noundef nonnull %70) #13
  %72 = load ptr, ptr %0, align 8, !tbaa !26
  %73 = getelementptr inbounds nuw i8, ptr %72, i64 160
  store ptr null, ptr %73, align 8, !tbaa !44
  br label %74

74:                                               ; preds = %71, %67
  %75 = phi ptr [ %72, %71 ], [ %68, %67 ]
  tail call void @free(ptr noundef nonnull %75) #13
  store ptr null, ptr %0, align 8, !tbaa !26
  br label %76

76:                                               ; preds = %74, %3
  %77 = getelementptr inbounds nuw i8, ptr %0, i64 8
  %78 = load ptr, ptr %77, align 8, !tbaa !3
  %.not60 = icmp eq ptr %78, null
  br i1 %.not60, label %80, label %79

79:                                               ; preds = %76
  tail call void @free(ptr noundef nonnull %78) #13
  br label %80

80:                                               ; preds = %79, %76
  tail call void @free(ptr noundef nonnull %0) #13
  br label %81

81:                                               ; preds = %1, %80
  ret i32 0
}